; Function Attrs: mustprogress uwtable
define void @_ZN6icu_7714Transliterator10unregisterERKNS_13UnicodeStringE(ptr noundef nonnull align 8 dereferenceable(64) %0) local_unnamed_addr #1 align 2 personality ptr @__gxx_personality_v0 {
  %2 = alloca i32, align 4
  tail call void @umtx_lock_77(ptr noundef nonnull @_ZL13registryMutex)
  call void @llvm.lifetime.start.p0(i64 4, ptr nonnull %2) #21
  store i32 0, ptr %2, align 4, !tbaa !13
  %3 = load ptr, ptr @_ZL8registry, align 8, !tbaa !49
  %.not = icmp eq ptr %3, null
  br i1 %.not, label %4, label %7

4:                                                ; preds = %1
  %5 = invoke noundef signext i8 @_ZN6icu_7714Transliterator18initializeRegistryER10UErrorCode(ptr noundef nonnull align 4 dereferenceable(4) %2)
          to label %6 unwind label %9

6:                                                ; preds = %4
  %.not2 = icmp eq i8 %5, 0
  br i1 %.not2, label %14, label %._crit_edge

._crit_edge:                                      ; preds = %6
  %.pre = load ptr, ptr @_ZL8registry, align 8, !tbaa !49
  br label %7

7:                                                ; preds = %._crit_edge, %1
  %8 = phi ptr [ %.pre, %._crit_edge ], [ %3, %1 ]
  invoke void @_ZN6icu_7722TransliteratorRegistry6removeERKNS_13UnicodeStringE(ptr noundef nonnull align 8 dereferenceable(312) %8, ptr noundef nonnull align 8 dereferenceable(64) %0)
          to label %14 unwind label %9

9:                                                ; preds = %7, %4
  %10 = landingpad { ptr, i32 }
          cleanup
  call void @llvm.lifetime.end.p0(i64 4, ptr nonnull %2) #21
  invoke void @umtx_unlock_77(ptr noundef nonnull @_ZL13registryMutex)
          to label %_ZN6icu_775MutexD2Ev.exit unwind label %11

11:                                               ; preds = %9
  %12 = landingpad { ptr, i32 }
          catch ptr null
  %13 = extractvalue { ptr, i32 } %12, 0
  call void @__clang_call_terminate(ptr %13) #23
  unreachable

_ZN6icu_775MutexD2Ev.exit:                        ; preds = %9
  resume { ptr, i32 } %10

14:                                               ; preds = %7, %6
  call void @llvm.lifetime.end.p0(i64 4, ptr nonnull %2) #21
  invoke void @umtx_unlock_77(ptr noundef nonnull @_ZL13registryMutex)
          to label %_ZN6icu_775MutexD2Ev.exit3 unwind label %15

15:                                               ; preds = %14
  %16 = landingpad { ptr, i32 }
          catch ptr null
  %17 = extractvalue { ptr, i32 } %16, 0
  call void @__clang_call_terminate(ptr %17) #23
  unreachable

_ZN6icu_775MutexD2Ev.exit3:                       ; preds = %14
  ret void
}